; Function Attrs: mustprogress nofree norecurse nosync nounwind willreturn memory(argmem: read) uwtable
define internal zeroext i1 @php_password_bcrypt_valid(ptr nocapture noundef readonly %0) #3 {
  %2 = getelementptr inbounds i8, ptr %0, i64 16
  %3 = load i64, ptr %2, align 8
  %4 = icmp eq i64 %3, 60
  br i1 %4, label %5, label %17

5:                                                ; preds = %1
  %6 = getelementptr inbounds i8, ptr %0, i64 24
  %7 = load i8, ptr %6, align 1
  %8 = icmp eq i8 %7, 36
  br i1 %8, label %9, label %17

9:                                                ; preds = %5
  %10 = getelementptr inbounds i8, ptr %0, i64 25
  %11 = load i8, ptr %10, align 1
  %12 = icmp eq i8 %11, 50
  br i1 %12, label %13, label %17

13:                                               ; preds = %9
  %14 = getelementptr inbounds i8, ptr %0, i64 26
  %15 = load i8, ptr %14, align 1
  %16 = icmp eq i8 %15, 121
  br label %17

17:                                               ; preds = %13, %9, %5, %1
  %18 = phi i1 [ false, %9 ], [ false, %5 ], [ false, %1 ], [ %16, %13 ]
  ret i1 %18
}